target datalayout = "e-m:e-p270:32:32-p271:32:32-p272:64:64-i64:64-i128:128-f80:128-n8:16:32:64-S128"
target triple = "x86_64-pc-linux-gnu"

@.str.2 = private unnamed_addr constant [26 x i8] c"../openssl/test/srptest.c\00", align 1
@.str.3 = private unnamed_addr constant [30 x i8] c"run_srp: expecting a mismatch\00", align 1
@.str.4 = private unnamed_addr constant [43 x i8] c"run_srp(\22alice\22, \22password1\22, \22password2\22)\00", align 1
@.str.5 = private unnamed_addr constant [6 x i8] c"alice\00", align 1
@.str.6 = private unnamed_addr constant [10 x i8] c"password1\00", align 1
@.str.7 = private unnamed_addr constant [10 x i8] c"password2\00", align 1
@.str.8 = private unnamed_addr constant [27 x i8] c"run_srp: expecting a match\00", align 1
@.str.9 = private unnamed_addr constant [41 x i8] c"run_srp(\22alice\22, \22password\22, \22password\22)\00", align 1
@.str.10 = private unnamed_addr constant [9 x i8] c"password\00", align 1

; Function Attrs: nounwind uwtable
define internal i32 @run_srp_tests() #0 {
  %1 = alloca i32, align 4
  call void (ptr, i32, ptr, ...) @test_info(ptr noundef @.str.2, i32 noundef 260, ptr noundef @.str.3)
  %2 = call i32 @run_srp(ptr noundef @.str.5, ptr noundef @.str.6, ptr noundef @.str.7)
  %3 = icmp ne i32 %2, 0
  %4 = zext i1 %3 to i32
  %5 = call i32 @test_false(ptr noundef @.str.2, i32 noundef 261, ptr noundef @.str.4, i32 noundef %4)
  %6 = icmp ne i32 %5, 0
  br i1 %6, label %8, label %7

7:                                                ; preds = %0
  store i32 0, ptr %1, align 4
  br label %16

8:                                                ; preds = %0
  call void (ptr, i32, ptr, ...) @test_info(ptr noundef @.str.2, i32 noundef 265, ptr noundef @.str.8)
  %9 = call i32 @run_srp(ptr noundef @.str.5, ptr noundef @.str.10, ptr noundef @.str.10)
  %10 = icmp ne i32 %9, 0
  %11 = zext i1 %10 to i32
  %12 = call i32 @test_true(ptr noundef @.str.2, i32 noundef 266, ptr noundef @.str.9, i32 noundef %11)
  %13 = icmp ne i32 %12, 0
  br i1 %13, label %15, label %14

14:                                               ; preds = %8
  store i32 0, ptr %1, align 4
  br label %16

15:                                               ; preds = %8
  store i32 1, ptr %1, align 4
  br label %16

16:                                               ; preds = %15, %14, %7
  %17 = load i32, ptr %1, align 4
  ret i32 %17
}