; Function Attrs: nounwind uwtable
define internal range(i32 0, 2) i32 @run_srp_tests() #0 {
  tail call void (ptr, i32, ptr, ...) @test_info(ptr noundef nonnull @.str.2, i32 noundef 260, ptr noundef nonnull @.str.3) #3
  %1 = tail call fastcc i32 @run_srp(ptr noundef nonnull @.str.6, ptr noundef nonnull @.str.7)
  %2 = tail call i32 @test_false(ptr noundef nonnull @.str.2, i32 noundef 261, ptr noundef nonnull @.str.4, i32 noundef %1) #3
  %.not = icmp eq i32 %2, 0
  br i1 %.not, label %6, label %3

3:                                                ; preds = %0
  tail call void (ptr, i32, ptr, ...) @test_info(ptr noundef nonnull @.str.2, i32 noundef 265, ptr noundef nonnull @.str.8) #3
  %4 = tail call fastcc i32 @run_srp(ptr noundef nonnull @.str.10, ptr noundef nonnull @.str.10)
  %5 = tail call i32 @test_true(ptr noundef nonnull @.str.2, i32 noundef 266, ptr noundef nonnull @.str.9, i32 noundef %4) #3
  %.not1 = icmp ne i32 %5, 0
  %. = zext i1 %.not1 to i32
  br label %6

6:                                                ; preds = %3, %0
  %.0 = phi i32 [ 0, %0 ], [ %., %3 ]
  ret i32 %.0
}